Certificate:
    Data:
        Version: 3 (0x2)
        Serial Number:
            53:7b:0c:59:fe:b8:22:1b:89:db:02:33:3a:43:97:a0
        Signature Algorithm: sha256WithRSAEncryption
        Issuer: CN=SchlichtCA
        Validity
            Not Before: Aug  8 20:04:30 2023 GMT
            Not After : Jul 23 20:04:30 2026 GMT
        Subject: CN=client-bendorf
        Subject Public Key Info:
            Public Key Algorithm: rsaEncryption
                RSA Public-Key: (2048 bit)
                Modulus:
                    00:c7:9c:30:51:cc:91:9d:19:4f:8e:12:9a:09:75:
                    04:df:a4:07:a7:c3:cc:97:7a:99:88:f6:d4:37:05:
                    b5:0a:80:94:96:bf:cd:e6:63:b9:af:c3:a9:f8:cb:
                    17:7f:a4:be:49:75:0b:6e:54:43:8a:a3:67:67:7b:
                    2d:90:60:ca:d7:75:9e:dd:0b:a0:9d:00:d6:10:53:
                    55:31:6a:c4:84:70:c6:32:4e:f4:93:c8:32:03:be:
                    f9:68:1a:79:13:f0:0a:b3:53:60:55:20:d4:42:28:
                    b5:82:32:0f:85:4f:d1:49:82:33:e4:f6:42:66:68:
                    e8:fc:ea:38:23:71:c5:75:0d:5f:33:0b:9d:f4:57:
                    c9:55:c4:55:14:26:02:08:1b:62:b9:2c:c4:5f:35:
                    81:75:45:63:04:36:68:d7:6a:96:28:a2:2d:f8:1a:
                    96:bd:34:80:15:17:62:ce:03:b0:27:40:70:ef:5b:
                    ba:7f:9d:b7:96:f5:19:b1:eb:db:60:50:61:c2:0c:
                    c4:46:93:f8:3d:cf:be:ea:21:a3:cc:69:3d:07:18:
                    b9:32:4c:52:ff:72:a3:63:06:7e:62:36:c8:50:96:
                    11:0b:0b:0e:61:b9:4f:ee:54:40:94:e1:b6:d5:f0:
                    38:6c:25:c5:db:09:1d:a2:a2:0e:f0:8e:c0:1b:22:
                    8d:41
                Exponent: 65537 (0x10001)
        X509v3 extensions:
            X509v3 Basic Constraints: 
                CA:FALSE
            X509v3 Subject Key Identifier: 
                EF:00:1E:BA:2D:50:AD:6B:23:AE:E1:4C:D1:EC:0F:18:1C:13:59:FD
            X509v3 Authority Key Identifier: 
                keyid:AD:50:44:DE:41:57:47:91:A7:94:23:42:57:E3:76:62:1B:0E:9A:5D
                DirName:/CN=SchlichtCA
                serial:09:77:F8:88:E4:E3:11:80:ED:30:1B:DD:11:CD:91:40:3F:BD:9A:53

            X509v3 Extended Key Usage: 
                TLS Web Client Authentication
            X509v3 Key Usage: 
                Digital Signature
    Signature Algorithm: sha256WithRSAEncryption
         39:22:4d:b0:72:f8:f8:51:ce:cd:a0:82:6f:b1:23:8e:c9:9d:
         88:16:69:e4:4e:e8:54:4a:4e:78:25:11:d7:c7:08:ac:1b:14:
         93:38:63:50:af:da:d9:9f:2d:e0:b6:e5:92:0a:62:3c:f0:a2:
         ec:50:ca:40:50:71:ee:a3:47:21:6c:d1:31:56:68:c8:8f:c3:
         03:7b:2b:69:84:c7:81:e8:7c:f4:78:11:17:d1:ca:d4:a0:2c:
         4c:95:ce:6e:22:07:fb:d6:8b:e4:e4:08:1a:fd:33:17:c4:cb:
         c4:b7:9d:24:d2:d9:e4:6d:95:84:7b:81:3f:3d:a1:52:d3:b7:
         8c:61:52:fd:c1:8e:e2:e9:78:28:33:3a:d5:05:61:9d:78:52:
         56:a4:9a:34:25:2e:57:5f:22:00:94:7a:c0:7c:26:f3:09:0d:
         75:0b:1d:f2:12:f2:c9:0d:0c:09:8e:7d:90:4a:c4:26:77:65:
         24:51:c3:18:db:8e:63:37:7d:5b:17:12:0d:db:34:e0:dd:2f:
         74:2a:07:26:92:50:bf:ee:c5:b5:ae:60:29:71:6d:df:27:72:
         93:94:25:4b:31:cf:47:fc:e3:85:95:4e:89:42:6a:db:a1:08:
         3b:6b:5f:5e:29:2f:f4:49:17:33:28:51:40:67:94:8a:53:47:
         ff:a9:94:3a
-----BEGIN CERTIFICATE-----
MIIDWjCCAkKgAwIBAgIQU3sMWf64IhuJ2wIzOkOXoDANBgkqhkiG9w0BAQsFADAV
MRMwEQYDVQQDDApTY2hsaWNodENBMB4XDTIzMDgwODIwMDQzMFoXDTI2MDcyMzIw
MDQzMFowGTEXMBUGA1UEAwwOY2xpZW50LWJlbmRvcmYwggEiMA0GCSqGSIb3DQEB
AQUAA4IBDwAwggEKAoIBAQDHnDBRzJGdGU+OEpoJdQTfpAenw8yXepmI9tQ3BbUK
gJSWv83mY7mvw6n4yxd/pL5JdQtuVEOKo2dney2QYMrXdZ7dC6CdANYQU1UxasSE
cMYyTvSTyDIDvvloGnkT8AqzU2BVINRCKLWCMg+FT9FJgjPk9kJmaOj86jgjccV1
DV8zC530V8lVxFUUJgIIG2K5LMRfNYF1RWMENmjXapYooi34Gpa9NIAVF2LOA7An
QHDvW7p/nbeW9Rmx69tgUGHCDMRGk/g9z77qIaPMaT0HGLkyTFL/cqNjBn5iNshQ
lhELCw5huU/uVECU4bbV8DhsJcXbCR2iog7wjsAbIo1BAgMBAAGjgaEwgZ4wCQYD
VR0TBAIwADAdBgNVHQ4EFgQU7wAeui1QrWsjruFM0ewPGBwTWf0wUAYDVR0jBEkw
R4AUrVBE3kFXR5GnlCNCV+N2YhsOml2hGaQXMBUxEzARBgNVBAMMClNjaGxpY2h0
Q0GCFAl3+Ijk4xGA7TAb3RHNkUA/vZpTMBMGA1UdJQQMMAoGCCsGAQUFBwMCMAsG
A1UdDwQEAwIHgDANBgkqhkiG9w0BAQsFAAOCAQEAOSJNsHL4+FHOzaCCb7Ejjsmd
iBZp5E7oVEpOeCUR18cIrBsUkzhjUK/a2Z8t4LblkgpiPPCi7FDKQFBx7qNHIWzR
MVZoyI/DA3sraYTHgeh89HgRF9HK1KAsTJXObiIH+9aL5OQIGv0zF8TLxLedJNLZ
5G2VhHuBPz2hUtO3jGFS/cGO4ul4KDM61QVhnXhSVqSaNCUuV18iAJR6wHwm8wkN
dQsd8hLyyQ0MCY59kErEJndlJFHDGNuOYzd9WxcSDds04N0vdCoHJpJQv+7Fta5g
KXFt3ydyk5QlSzHPR/zjhZVOiUJq26EIO2tfXikv9EkXMyhRQGeUilNH/6mUOg==
-----END CERTIFICATE-----
